target datalayout = "e-m:e-p270:32:32-p271:32:32-p272:64:64-i64:64-i128:128-f80:128-n8:16:32:64-S128"
target triple = "x86_64-pc-linux-gnu"

%struct.location = type { i32, i32 }
%struct.block = type { ptr, ptr }
%struct.inst = type { ptr, ptr, i32, %struct.anon, ptr, %struct.location, ptr, ptr, i32, i32, i32, i32, %struct.block, %struct.block, ptr, i32 }
%struct.anon = type { i16, ptr, %struct.jv, ptr }
%struct.jv = type { i8, i8, i16, i32, %union.anon }
%union.anon = type { ptr }
%struct.opcode_description = type { i32, ptr, i32, i32, i32, i32 }

@.str = private unnamed_addr constant [3 x i8] c"::\00", align 1

; Function Attrs: nounwind uwtable
define internal i32 @block_bind_subblock(ptr %0, ptr %1, ptr %2, ptr %3, i32 noundef %4, i32 noundef %5) #0 {
  %7 = alloca %struct.block, align 8
  %8 = alloca %struct.block, align 8
  %9 = alloca i32, align 4
  %10 = alloca i32, align 4
  %11 = alloca i32, align 4
  %12 = getelementptr inbounds nuw { ptr, ptr }, ptr %7, i32 0, i32 0
  store ptr %0, ptr %12, align 8
  %13 = getelementptr inbounds nuw { ptr, ptr }, ptr %7, i32 0, i32 1
  store ptr %1, ptr %13, align 8
  %14 = getelementptr inbounds nuw { ptr, ptr }, ptr %8, i32 0, i32 0
  store ptr %2, ptr %14, align 8
  %15 = getelementptr inbounds nuw { ptr, ptr }, ptr %8, i32 0, i32 1
  store ptr %3, ptr %15, align 8
  store i32 %4, ptr %9, align 4, !tbaa !26
  store i32 %5, ptr %10, align 4, !tbaa !26
  call void @llvm.lifetime.start.p0(i64 4, ptr %11) #7
  %16 = load i32, ptr %9, align 4, !tbaa !26
  %17 = load i32, ptr %10, align 4, !tbaa !26
  %18 = getelementptr inbounds nuw { ptr, ptr }, ptr %7, i32 0, i32 0
  %19 = load ptr, ptr %18, align 8
  %20 = getelementptr inbounds nuw { ptr, ptr }, ptr %7, i32 0, i32 1
  %21 = load ptr, ptr %20, align 8
  %22 = getelementptr inbounds nuw { ptr, ptr }, ptr %8, i32 0, i32 0
  %23 = load ptr, ptr %22, align 8
  %24 = getelementptr inbounds nuw { ptr, ptr }, ptr %8, i32 0, i32 1
  %25 = load ptr, ptr %24, align 8
  %26 = call i32 @block_bind_subblock_inner(ptr noundef %11, ptr %19, ptr %21, ptr %23, ptr %25, i32 noundef %16, i32 noundef %17)
  call void @llvm.lifetime.end.p0(i64 4, ptr %11) #7
  ret i32 %26
}

; Function Attrs: nounwind uwtable
define internal { ptr, ptr } @inst_block(ptr noundef %0) #0 {
  %2 = alloca %struct.block, align 8
  %3 = alloca ptr, align 8
  store ptr %0, ptr %3, align 8, !tbaa !13
  %4 = getelementptr inbounds nuw %struct.block, ptr %2, i32 0, i32 0
  %5 = load ptr, ptr %3, align 8, !tbaa !13
  store ptr %5, ptr %4, align 8, !tbaa !4
  %6 = getelementptr inbounds nuw %struct.block, ptr %2, i32 0, i32 1
  %7 = load ptr, ptr %3, align 8, !tbaa !13
  store ptr %7, ptr %6, align 8, !tbaa !10
  %8 = load { ptr, ptr }, ptr %2, align 8
  ret { ptr, ptr } %8
}

; Function Attrs: nounwind uwtable
define dso_local { ptr, ptr } @block_bind_library(ptr %0, ptr %1, ptr %2, ptr %3, i32 noundef %4, ptr noundef %5) #0 {
  %7 = alloca %struct.block, align 8
  %8 = alloca %struct.block, align 8
  %9 = alloca %struct.block, align 8
  %10 = alloca i32, align 4
  %11 = alloca ptr, align 8
  %12 = alloca i32, align 4
  %13 = alloca ptr, align 8
  %14 = alloca ptr, align 8
  %15 = alloca i32, align 4
  %16 = alloca ptr, align 8
  %17 = alloca ptr, align 8
  %18 = alloca %struct.block, align 8
  %19 = getelementptr inbounds nuw { ptr, ptr }, ptr %8, i32 0, i32 0
  store ptr %0, ptr %19, align 8
  %20 = getelementptr inbounds nuw { ptr, ptr }, ptr %8, i32 0, i32 1
  store ptr %1, ptr %20, align 8
  %21 = getelementptr inbounds nuw { ptr, ptr }, ptr %9, i32 0, i32 0
  store ptr %2, ptr %21, align 8
  %22 = getelementptr inbounds nuw { ptr, ptr }, ptr %9, i32 0, i32 1
  store ptr %3, ptr %22, align 8
  store i32 %4, ptr %10, align 4, !tbaa !26
  store ptr %5, ptr %11, align 8, !tbaa !44
  %23 = load i32, ptr %10, align 4, !tbaa !26
  %24 = or i32 %23, 1024
  store i32 %24, ptr %10, align 4, !tbaa !26
  call void @llvm.lifetime.start.p0(i64 4, ptr %12) #7
  %25 = load ptr, ptr %11, align 8, !tbaa !44
  %26 = icmp eq ptr %25, null
  br i1 %26, label %27, label %28

27:                                               ; preds = %6
  br label %31

28:                                               ; preds = %6
  %29 = load ptr, ptr %11, align 8, !tbaa !44
  %30 = call i64 @strlen(ptr noundef %29) #8
  br label %31

31:                                               ; preds = %28, %27
  %32 = phi i64 [ 0, %27 ], [ %30, %28 ]
  %33 = trunc i64 %32 to i32
  store i32 %33, ptr %12, align 4, !tbaa !26
  call void @llvm.lifetime.start.p0(i64 8, ptr %13) #7
  %34 = load i32, ptr %12, align 4, !tbaa !26
  %35 = add nsw i32 %34, 2
  %36 = add nsw i32 %35, 1
  %37 = sext i32 %36 to i64
  %38 = call ptr @jv_mem_alloc(i64 noundef %37)
  store ptr %38, ptr %13, align 8, !tbaa !44
  %39 = load ptr, ptr %13, align 8, !tbaa !44
  %40 = getelementptr inbounds i8, ptr %39, i64 0
  store i8 0, ptr %40, align 1, !tbaa !42
  %41 = load ptr, ptr %11, align 8, !tbaa !44
  %42 = icmp ne ptr %41, null
  br i1 %42, label %43, label %60

43:                                               ; preds = %31
  %44 = load ptr, ptr %11, align 8, !tbaa !44
  %45 = getelementptr inbounds i8, ptr %44, i64 0
  %46 = load i8, ptr %45, align 1, !tbaa !42
  %47 = sext i8 %46 to i32
  %48 = icmp ne i32 %47, 0
  br i1 %48, label %49, label %60

49:                                               ; preds = %43
  %50 = load ptr, ptr %13, align 8, !tbaa !44
  %51 = load ptr, ptr %11, align 8, !tbaa !44
  %52 = call ptr @strcpy(ptr noundef %50, ptr noundef %51) #7
  %53 = load ptr, ptr %13, align 8, !tbaa !44
  %54 = load i32, ptr %12, align 4, !tbaa !26
  %55 = sext i32 %54 to i64
  %56 = getelementptr inbounds i8, ptr %53, i64 %55
  %57 = call ptr @strcpy(ptr noundef %56, ptr noundef @.str) #7
  %58 = load i32, ptr %12, align 4, !tbaa !26
  %59 = add nsw i32 %58, 2
  store i32 %59, ptr %12, align 4, !tbaa !26
  br label %60

60:                                               ; preds = %49, %43, %31
  call void @llvm.lifetime.start.p0(i64 8, ptr %14) #7
  %61 = getelementptr inbounds nuw %struct.block, ptr %8, i32 0, i32 1
  %62 = load ptr, ptr %61, align 8, !tbaa !10
  store ptr %62, ptr %14, align 8, !tbaa !13
  br label %63

63:                                               ; preds = %125, %60
  %64 = load ptr, ptr %14, align 8, !tbaa !13
  %65 = icmp ne ptr %64, null
  br i1 %65, label %67, label %66

66:                                               ; preds = %63
  call void @llvm.lifetime.end.p0(i64 8, ptr %14) #7
  br label %129

67:                                               ; preds = %63
  call void @llvm.lifetime.start.p0(i64 4, ptr %15) #7
  %68 = load i32, ptr %10, align 4, !tbaa !26
  store i32 %68, ptr %15, align 4, !tbaa !26
  call void @llvm.lifetime.start.p0(i64 8, ptr %16) #7
  %69 = load ptr, ptr %14, align 8, !tbaa !13
  %70 = getelementptr inbounds nuw %struct.inst, ptr %69, i32 0, i32 7
  %71 = load ptr, ptr %70, align 8, !tbaa !36
  store ptr %71, ptr %16, align 8, !tbaa !44
  call void @llvm.lifetime.start.p0(i64 8, ptr %17) #7
  %72 = load ptr, ptr %14, align 8, !tbaa !13
  %73 = getelementptr inbounds nuw %struct.inst, ptr %72, i32 0, i32 7
  %74 = load ptr, ptr %73, align 8, !tbaa !36
  %75 = call i64 @strlen(ptr noundef %74) #8
  %76 = load i32, ptr %12, align 4, !tbaa !26
  %77 = sext i32 %76 to i64
  %78 = add i64 %75, %77
  %79 = add i64 %78, 1
  %80 = call ptr @jv_mem_alloc(i64 noundef %79)
  store ptr %80, ptr %17, align 8, !tbaa !44
  %81 = load ptr, ptr %17, align 8, !tbaa !44
  %82 = load ptr, ptr %13, align 8, !tbaa !44
  %83 = call ptr @strcpy(ptr noundef %81, ptr noundef %82) #7
  %84 = load ptr, ptr %17, align 8, !tbaa !44
  %85 = load i32, ptr %12, align 4, !tbaa !26
  %86 = sext i32 %85 to i64
  %87 = getelementptr inbounds i8, ptr %84, i64 %86
  %88 = load ptr, ptr %14, align 8, !tbaa !13
  %89 = getelementptr inbounds nuw %struct.inst, ptr %88, i32 0, i32 7
  %90 = load ptr, ptr %89, align 8, !tbaa !36
  %91 = call ptr @strcpy(ptr noundef %87, ptr noundef %90) #7
  %92 = load ptr, ptr %14, align 8, !tbaa !13
  %93 = getelementptr inbounds nuw %struct.inst, ptr %92, i32 0, i32 2
  %94 = load i32, ptr %93, align 8, !tbaa !33
  %95 = call ptr @opcode_describe(i32 noundef %94)
  %96 = getelementptr inbounds nuw %struct.opcode_description, ptr %95, i32 0, i32 2
  %97 = load i32, ptr %96, align 8, !tbaa !48
  %98 = and i32 %97, 6
  %99 = icmp ne i32 %98, 0
  br i1 %99, label %100, label %101

100:                                              ; preds = %67
  store i32 1028, ptr %15, align 4, !tbaa !26
  br label %101

101:                                              ; preds = %100, %67
  %102 = load ptr, ptr %17, align 8, !tbaa !44
  %103 = load ptr, ptr %14, align 8, !tbaa !13
  %104 = getelementptr inbounds nuw %struct.inst, ptr %103, i32 0, i32 7
  store ptr %102, ptr %104, align 8, !tbaa !36
  %105 = load ptr, ptr %14, align 8, !tbaa !13
  %106 = call { ptr, ptr } @inst_block(ptr noundef %105)
  %107 = getelementptr inbounds nuw { ptr, ptr }, ptr %18, i32 0, i32 0
  %108 = extractvalue { ptr, ptr } %106, 0
  store ptr %108, ptr %107, align 8
  %109 = getelementptr inbounds nuw { ptr, ptr }, ptr %18, i32 0, i32 1
  %110 = extractvalue { ptr, ptr } %106, 1
  store ptr %110, ptr %109, align 8
  %111 = load i32, ptr %15, align 4, !tbaa !26
  %112 = getelementptr inbounds nuw { ptr, ptr }, ptr %18, i32 0, i32 0
  %113 = load ptr, ptr %112, align 8
  %114 = getelementptr inbounds nuw { ptr, ptr }, ptr %18, i32 0, i32 1
  %115 = load ptr, ptr %114, align 8
  %116 = getelementptr inbounds nuw { ptr, ptr }, ptr %9, i32 0, i32 0
  %117 = load ptr, ptr %116, align 8
  %118 = getelementptr inbounds nuw { ptr, ptr }, ptr %9, i32 0, i32 1
  %119 = load ptr, ptr %118, align 8
  %120 = call i32 @block_bind_subblock(ptr %113, ptr %115, ptr %117, ptr %119, i32 noundef %111, i32 noundef 0)
  %121 = load ptr, ptr %16, align 8, !tbaa !44
  %122 = load ptr, ptr %14, align 8, !tbaa !13
  %123 = getelementptr inbounds nuw %struct.inst, ptr %122, i32 0, i32 7
  store ptr %121, ptr %123, align 8, !tbaa !36
  %124 = load ptr, ptr %17, align 8, !tbaa !44
  call void @free(ptr noundef %124) #7
  call void @llvm.lifetime.end.p0(i64 8, ptr %17) #7
  call void @llvm.lifetime.end.p0(i64 8, ptr %16) #7
  call void @llvm.lifetime.end.p0(i64 4, ptr %15) #7
  br label %125

125:                                              ; preds = %101
  %126 = load ptr, ptr %14, align 8, !tbaa !13
  %127 = getelementptr inbounds nuw %struct.inst, ptr %126, i32 0, i32 1
  %128 = load ptr, ptr %127, align 8, !tbaa !32
  store ptr %128, ptr %14, align 8, !tbaa !13
  br label %63, !llvm.loop !52

129:                                              ; preds = %66
  %130 = load ptr, ptr %13, align 8, !tbaa !44
  call void @free(ptr noundef %130) #7
  call void @llvm.memcpy.p0.p0.i64(ptr align 8 %7, ptr align 8 %9, i64 16, i1 false), !tbaa.struct !31
  call void @llvm.lifetime.end.p0(i64 8, ptr %13) #7
  call void @llvm.lifetime.end.p0(i64 4, ptr %12) #7
  %131 = load { ptr, ptr }, ptr %7, align 8
  ret { ptr, ptr } %131
}