; Function Attrs: nounwind uwtable
define dso_local { ptr, ptr } @block_bind_library(ptr readnone captures(none) %0, ptr %1, ptr %2, ptr %3, i32 noundef %4, ptr noundef readonly captures(address_is_null) %5) local_unnamed_addr #1 {
  %7 = alloca i32, align 4
  %8 = or i32 %4, 1024
  %9 = icmp eq ptr %5, null
  br i1 %9, label %13, label %10

10:                                               ; preds = %6
  %11 = tail call i64 @strlen(ptr noundef nonnull dereferenceable(1) %5) #18
  %12 = trunc i64 %11 to i32
  br label %13

13:                                               ; preds = %6, %10
  %14 = phi i32 [ %12, %10 ], [ 0, %6 ]
  %15 = add nsw i32 %14, 2
  %16 = add nsw i32 %14, 3
  %17 = sext i32 %16 to i64
  %18 = tail call ptr @jv_mem_alloc(i64 noundef %17) #17
  store i8 0, ptr %18, align 1, !tbaa !29
  br i1 %9, label %25, label %19

19:                                               ; preds = %13
  %20 = load i8, ptr %5, align 1, !tbaa !29
  %.not38 = icmp eq i8 %20, 0
  br i1 %.not38, label %25, label %21

21:                                               ; preds = %19
  %22 = tail call ptr @strcpy(ptr noundef nonnull dereferenceable(1) %18, ptr noundef nonnull dereferenceable(1) %5) #17
  %23 = sext i32 %14 to i64
  %24 = getelementptr inbounds i8, ptr %18, i64 %23
  tail call void @llvm.memcpy.p0.p0.i64(ptr noundef nonnull align 1 dereferenceable(3) %24, ptr noundef nonnull align 1 dereferenceable(3) @.str, i64 3, i1 false) #17
  br label %25

25:                                               ; preds = %21, %19, %13
  %.0 = phi i32 [ %15, %21 ], [ %14, %19 ], [ %14, %13 ]
  %.not3941 = icmp eq ptr %1, null
  br i1 %.not3941, label %._crit_edge, label %.lr.ph

.lr.ph:                                           ; preds = %25
  %26 = sext i32 %.0 to i64
  %27 = add nsw i64 %26, 1
  br label %28

._crit_edge:                                      ; preds = %28, %25
  tail call void @free(ptr noundef nonnull %18) #17
  %.fca.0.insert = insertvalue { ptr, ptr } poison, ptr %2, 0
  %.fca.1.insert = insertvalue { ptr, ptr } %.fca.0.insert, ptr %3, 1
  ret { ptr, ptr } %.fca.1.insert

28:                                               ; preds = %.lr.ph, %28
  %.03542 = phi ptr [ %1, %.lr.ph ], [ %46, %28 ]
  %29 = getelementptr inbounds nuw i8, ptr %.03542, i64 88
  %30 = load ptr, ptr %29, align 8, !tbaa !30
  %31 = tail call i64 @strlen(ptr noundef nonnull dereferenceable(1) %30) #18
  %32 = add i64 %27, %31
  %33 = tail call ptr @jv_mem_alloc(i64 noundef %32) #17
  %34 = tail call ptr @strcpy(ptr noundef nonnull dereferenceable(1) %33, ptr noundef nonnull dereferenceable(1) %18) #17
  %35 = getelementptr inbounds i8, ptr %33, i64 %26
  %36 = load ptr, ptr %29, align 8, !tbaa !30
  %37 = tail call ptr @strcpy(ptr noundef nonnull dereferenceable(1) %35, ptr noundef nonnull dereferenceable(1) %36) #17
  %38 = getelementptr inbounds nuw i8, ptr %.03542, i64 16
  %39 = load i32, ptr %38, align 8, !tbaa !25
  %40 = tail call ptr @opcode_describe(i32 noundef %39) #17
  %41 = getelementptr inbounds nuw i8, ptr %40, i64 16
  %42 = load i32, ptr %41, align 8, !tbaa !38
  %43 = and i32 %42, 6
  %.not40 = icmp eq i32 %43, 0
  %spec.select = select i1 %.not40, i32 %8, i32 1028
  store ptr %33, ptr %29, align 8, !tbaa !30
  call void @llvm.lifetime.start.p0(i64 4, ptr nonnull %7) #17
  %44 = call fastcc i32 @block_bind_subblock_inner(ptr noundef %7, ptr nonnull %.03542, ptr %2, i32 noundef range(i32 1024, 5) %spec.select, i32 noundef 0)
  call void @llvm.lifetime.end.p0(i64 4, ptr nonnull %7) #17
  store ptr %30, ptr %29, align 8, !tbaa !30
  tail call void @free(ptr noundef %33) #17
  %45 = getelementptr inbounds nuw i8, ptr %.03542, i64 8
  %46 = load ptr, ptr %45, align 8, !tbaa !34
  %.not39 = icmp eq ptr %46, null
  br i1 %.not39, label %._crit_edge, label %28, !llvm.loop !42
}